target datalayout = "e-m:e-p270:32:32-p271:32:32-p272:64:64-i64:64-i128:128-f80:128-n8:16:32:64-S128"
target triple = "x86_64-pc-linux-gnu"

%struct.CodedBitstreamUnit = type { i32, ptr, i64, i64, ptr, ptr, ptr }

@.str.1 = private unnamed_addr constant [30 x i8] c"Assertion %s failed at %s:%d\0A\00", align 1
@.str.3 = private unnamed_addr constant [17 x i8] c"libavcodec/cbs.c\00", align 1
@.str.25 = private unnamed_addr constant [14 x i8] c"unit->content\00", align 1

; Function Attrs: nounwind uwtable
define i32 @ff_cbs_make_unit_writable(ptr noundef %0, ptr noundef %1) #3 {
  %3 = alloca i32, align 4
  %4 = alloca ptr, align 8
  %5 = alloca ptr, align 8
  %6 = alloca ptr, align 8
  %7 = alloca i32, align 4
  %8 = alloca i32, align 4
  store ptr %0, ptr %4, align 8, !tbaa !22
  store ptr %1, ptr %5, align 8, !tbaa !50
  call void @llvm.lifetime.start.p0(i64 8, ptr %6) #13
  %9 = load ptr, ptr %5, align 8, !tbaa !50
  %10 = getelementptr inbounds nuw %struct.CodedBitstreamUnit, ptr %9, i32 0, i32 6
  %11 = load ptr, ptr %10, align 8, !tbaa !123
  store ptr %11, ptr %6, align 8, !tbaa !12
  call void @llvm.lifetime.start.p0(i64 4, ptr %7) #13
  br label %12

12:                                               ; preds = %2
  %13 = load ptr, ptr %5, align 8, !tbaa !50
  %14 = getelementptr inbounds nuw %struct.CodedBitstreamUnit, ptr %13, i32 0, i32 5
  %15 = load ptr, ptr %14, align 8, !tbaa !51
  %16 = icmp ne ptr %15, null
  br i1 %16, label %18, label %17

17:                                               ; preds = %12
  call void (ptr, i32, ptr, ...) @av_log(ptr noundef null, i32 noundef 0, ptr noundef @.str.1, ptr noundef @.str.25, ptr noundef @.str.3, i32 noundef 1065)
  call void @abort() #14
  unreachable

18:                                               ; preds = %12
  br label %19

19:                                               ; preds = %18
  br label %20

20:                                               ; preds = %19
  %21 = load ptr, ptr %6, align 8, !tbaa !12
  %22 = icmp ne ptr %21, null
  br i1 %22, label %23, label %28

23:                                               ; preds = %20
  %24 = load ptr, ptr %6, align 8, !tbaa !12
  %25 = call i32 @av_refstruct_exclusive(ptr noundef %24)
  %26 = icmp ne i32 %25, 0
  br i1 %26, label %27, label %28

27:                                               ; preds = %23
  store i32 0, ptr %3, align 4
  store i32 1, ptr %8, align 4
  br label %37

28:                                               ; preds = %23, %20
  %29 = load ptr, ptr %4, align 8, !tbaa !22
  %30 = load ptr, ptr %5, align 8, !tbaa !50
  %31 = call i32 @cbs_clone_unit_content(ptr noundef %29, ptr noundef %30)
  store i32 %31, ptr %7, align 4, !tbaa !10
  %32 = load i32, ptr %7, align 4, !tbaa !10
  %33 = icmp slt i32 %32, 0
  br i1 %33, label %34, label %36

34:                                               ; preds = %28
  %35 = load i32, ptr %7, align 4, !tbaa !10
  store i32 %35, ptr %3, align 4
  store i32 1, ptr %8, align 4
  br label %37

36:                                               ; preds = %28
  call void @av_refstruct_unref(ptr noundef %6)
  store i32 0, ptr %3, align 4
  store i32 1, ptr %8, align 4
  br label %37

37:                                               ; preds = %36, %34, %27
  call void @llvm.lifetime.end.p0(i64 4, ptr %7) #13
  call void @llvm.lifetime.end.p0(i64 8, ptr %6) #13
  %38 = load i32, ptr %3, align 4
  ret i32 %38
}