; Function Attrs: nounwind uwtable
define range(i32 -2147483648, 1) i32 @ff_cbs_make_unit_writable(ptr noundef readonly captures(none) %0, ptr noundef %1) local_unnamed_addr #3 {
  %3 = alloca ptr, align 8
  call void @llvm.lifetime.start.p0(i64 8, ptr nonnull %3) #10
  %4 = getelementptr inbounds nuw i8, ptr %1, i64 48
  %5 = load ptr, ptr %4, align 8, !tbaa !109
  store ptr %5, ptr %3, align 8, !tbaa !117
  %6 = getelementptr inbounds nuw i8, ptr %1, i64 40
  %7 = load ptr, ptr %6, align 8, !tbaa !39
  %.not = icmp eq ptr %7, null
  br i1 %.not, label %8, label %9

8:                                                ; preds = %2
  tail call void (ptr, i32, ptr, ...) @av_log(ptr noundef null, i32 noundef 0, ptr noundef nonnull @.str.1, ptr noundef nonnull @.str.25, ptr noundef nonnull @.str.3, i32 noundef 1065) #10
  tail call void @abort() #11
  unreachable

9:                                                ; preds = %2
  %.not8 = icmp eq ptr %5, null
  br i1 %.not8, label %12, label %10

10:                                               ; preds = %9
  %11 = tail call i32 @av_refstruct_exclusive(ptr noundef nonnull %5) #10
  %.not9 = icmp eq i32 %11, 0
  br i1 %.not9, label %12, label %18

12:                                               ; preds = %10, %9
  %13 = getelementptr i8, ptr %0, i64 8
  %.val = load ptr, ptr %13, align 8, !tbaa !23
  %14 = getelementptr i8, ptr %.val, i64 24
  %.val.val = load ptr, ptr %14, align 8, !tbaa !111
  %15 = tail call fastcc i32 @cbs_clone_unit_content(ptr %.val.val, ptr noundef nonnull %1)
  %16 = icmp slt i32 %15, 0
  br i1 %16, label %18, label %17

17:                                               ; preds = %12
  call void @av_refstruct_unref(ptr noundef nonnull %3) #10
  br label %18

18:                                               ; preds = %12, %10, %17
  %.0 = phi i32 [ 0, %17 ], [ 0, %10 ], [ %15, %12 ]
  call void @llvm.lifetime.end.p0(i64 8, ptr nonnull %3) #10
  ret i32 %.0
}